; Function Attrs: inlinehint mustprogress nounwind uwtable
define internal void @_ZN12_GLOBAL__N_121tactic2solver_factoryD0Ev(ptr noundef nonnull align 8 dereferenceable(16) initializes((0, 8)) %0) unnamed_addr #5 align 2 personality ptr @__gxx_personality_v0 {
  store ptr getelementptr inbounds nuw inrange(-16, 24) (i8, ptr @_ZTVN12_GLOBAL__N_121tactic2solver_factoryE, i64 16), ptr %0, align 8, !tbaa !3
  %2 = getelementptr inbounds nuw i8, ptr %0, i64 8
  %3 = load ptr, ptr %2, align 8, !tbaa !52
  %.not.i.i.i = icmp eq ptr %3, null
  br i1 %.not.i.i.i, label %_ZN12_GLOBAL__N_121tactic2solver_factoryD2Ev.exit, label %4

4:                                                ; preds = %1
  %5 = getelementptr inbounds nuw i8, ptr %3, i64 8
  %6 = load i32, ptr %5, align 8, !tbaa !50
  %7 = add i32 %6, -1
  store i32 %7, ptr %5, align 8, !tbaa !50
  %8 = icmp eq i32 %7, 0
  br i1 %8, label %9, label %_ZN12_GLOBAL__N_121tactic2solver_factoryD2Ev.exit

9:                                                ; preds = %4
  %10 = load ptr, ptr %3, align 8, !tbaa !3
  %11 = load ptr, ptr %10, align 8
  tail call void %11(ptr noundef nonnull align 8 dereferenceable(12) %3) #28
  invoke void @_ZN6memory10deallocateEPv(ptr noundef nonnull align 8 dereferenceable(12) %3)
          to label %_ZN12_GLOBAL__N_121tactic2solver_factoryD2Ev.exit unwind label %12

12:                                               ; preds = %9
  %13 = landingpad { ptr, i32 }
          catch ptr null
  %14 = extractvalue { ptr, i32 } %13, 0
  tail call void @__clang_call_terminate(ptr %14) #29
  unreachable

_ZN12_GLOBAL__N_121tactic2solver_factoryD2Ev.exit: ; preds = %1, %4, %9
  tail call void @_ZdlPvm(ptr noundef nonnull %0, i64 noundef 16) #30
  ret void
}